target datalayout = "e-m:e-p270:32:32-p271:32:32-p272:64:64-i64:64-i128:128-f80:128-n8:16:32:64-S128"
target triple = "x86_64-unknown-linux-gnu"

%"class.llvh::raw_ostream" = type <{ ptr, ptr, ptr, ptr, i32, [4 x i8] }>
%"class.llvh::format_object" = type { %"class.llvh::format_object_base", %"class.std::tuple.116" }
%"class.llvh::format_object_base" = type { ptr, ptr }
%"class.std::tuple.116" = type { %"struct.std::_Tuple_impl.117" }
%"struct.std::_Tuple_impl.117" = type { %"struct.std::_Tuple_impl.118", %"struct.std::_Head_base.120" }
%"struct.std::_Tuple_impl.118" = type { %"struct.std::_Head_base.119" }
%"struct.std::_Head_base.119" = type { i8 }
%"struct.std::_Head_base.120" = type { double }
%"struct.llvh::validate_format_parameters" = type { i8 }
%"struct.llvh::validate_format_parameters.121" = type { i8 }

@.str.31 = private unnamed_addr constant [3 x i8] c" B\00", align 1
@.str.32 = private unnamed_addr constant [57 x i8] c"Section diff is in the terabyte range.\0AFile is corrupt.\0A\00", align 1
@.str.33 = private unnamed_addr constant [4 x i8] c"KMG\00", align 1
@.str.34 = private unnamed_addr constant [10 x i8] c"%.2f %ciB\00", align 1
@_ZTVN4llvh13format_objectIJdcEEE = linkonce_odr hidden unnamed_addr constant { [4 x ptr] } { [4 x ptr] [ptr null, ptr null, ptr @_ZN4llvh18format_object_base4homeEv, ptr @_ZNK4llvh13format_objectIJdcEE7snprintEPcj] }, comdat, align 8
@_ZTVN4llvh18format_object_baseE = external unnamed_addr constant { [4 x ptr] }, align 8

; Function Attrs: mustprogress nounwind uwtable
define linkonce_odr dso_local void @_ZNSt10_Head_baseILm1EcLb0EEC2ERKc(ptr noundef nonnull align 1 dereferenceable(1) %this, ptr noundef nonnull align 1 dereferenceable(1) %__h) unnamed_addr #2 comdat align 2 {
entry:
  %this.addr = alloca ptr, align 8
  %__h.addr = alloca ptr, align 8
  store ptr %this, ptr %this.addr, align 8
  store ptr %__h, ptr %__h.addr, align 8
  %this1 = load ptr, ptr %this.addr, align 8
  %_M_head_impl = getelementptr inbounds %"struct.std::_Head_base.119", ptr %this1, i32 0, i32 0
  %0 = load ptr, ptr %__h.addr, align 8
  %1 = load i8, ptr %0, align 1
  store i8 %1, ptr %_M_head_impl, align 1
  ret void
}

; Function Attrs: mustprogress nounwind uwtable
define linkonce_odr dso_local void @_ZNSt10_Head_baseILm0EdLb0EEC2ERKd(ptr noundef nonnull align 8 dereferenceable(8) %this, ptr noundef nonnull align 8 dereferenceable(8) %__h) unnamed_addr #2 comdat align 2 {
entry:
  %this.addr = alloca ptr, align 8
  %__h.addr = alloca ptr, align 8
  store ptr %this, ptr %this.addr, align 8
  store ptr %__h, ptr %__h.addr, align 8
  %this1 = load ptr, ptr %this.addr, align 8
  %_M_head_impl = getelementptr inbounds %"struct.std::_Head_base.120", ptr %this1, i32 0, i32 0
  %0 = load ptr, ptr %__h.addr, align 8
  %1 = load double, ptr %0, align 8
  store double %1, ptr %_M_head_impl, align 8
  ret void
}

; Function Attrs: mustprogress nounwind uwtable
define linkonce_odr dso_local void @_ZNSt11_Tuple_implILm1EJcEEC2ERKc(ptr noundef nonnull align 1 dereferenceable(1) %this, ptr noundef nonnull align 1 dereferenceable(1) %__head) unnamed_addr #2 comdat align 2 {
entry:
  %this.addr = alloca ptr, align 8
  %__head.addr = alloca ptr, align 8
  store ptr %this, ptr %this.addr, align 8
  store ptr %__head, ptr %__head.addr, align 8
  %this1 = load ptr, ptr %this.addr, align 8
  %0 = load ptr, ptr %__head.addr, align 8
  call void @_ZNSt10_Head_baseILm1EcLb0EEC2ERKc(ptr noundef nonnull align 1 dereferenceable(1) %this1, ptr noundef nonnull align 1 dereferenceable(1) %0)
  ret void
}

; Function Attrs: mustprogress nounwind uwtable
define linkonce_odr hidden void @_ZN4llvh26validate_format_parametersIJcEEC2Ev(ptr noundef nonnull align 1 dereferenceable(1) %this) unnamed_addr #2 comdat align 2 {
entry:
  %this.addr = alloca ptr, align 8
  store ptr %this, ptr %this.addr, align 8
  ret void
}

; Function Attrs: mustprogress nounwind uwtable
define linkonce_odr dso_local void @_ZNSt11_Tuple_implILm0EJdcEEC2ERKdRKc(ptr noundef nonnull align 8 dereferenceable(16) %this, ptr noundef nonnull align 8 dereferenceable(8) %__head, ptr noundef nonnull align 1 dereferenceable(1) %__tail) unnamed_addr #2 comdat align 2 {
entry:
  %this.addr = alloca ptr, align 8
  %__head.addr = alloca ptr, align 8
  %__tail.addr = alloca ptr, align 8
  store ptr %this, ptr %this.addr, align 8
  store ptr %__head, ptr %__head.addr, align 8
  store ptr %__tail, ptr %__tail.addr, align 8
  %this1 = load ptr, ptr %this.addr, align 8
  %0 = load ptr, ptr %__tail.addr, align 8
  call void @_ZNSt11_Tuple_implILm1EJcEEC2ERKc(ptr noundef nonnull align 1 dereferenceable(1) %this1, ptr noundef nonnull align 1 dereferenceable(1) %0)
  %1 = getelementptr inbounds i8, ptr %this1, i64 8
  %2 = load ptr, ptr %__head.addr, align 8
  call void @_ZNSt10_Head_baseILm0EdLb0EEC2ERKd(ptr noundef nonnull align 8 dereferenceable(8) %1, ptr noundef nonnull align 8 dereferenceable(8) %2)
  ret void
}

; Function Attrs: mustprogress nounwind uwtable
define linkonce_odr hidden void @_ZN4llvh26validate_format_parametersIJdcEEC2Ev(ptr noundef nonnull align 1 dereferenceable(1) %this) unnamed_addr #2 comdat align 2 {
entry:
  %this.addr = alloca ptr, align 8
  %agg.tmp.ensured = alloca %"struct.llvh::validate_format_parameters.121", align 1
  store ptr %this, ptr %this.addr, align 8
  call void @_ZN4llvh26validate_format_parametersIJcEEC2Ev(ptr noundef nonnull align 1 dereferenceable(1) %agg.tmp.ensured)
  ret void
}

; Function Attrs: mustprogress nounwind uwtable
define linkonce_odr dso_local void @_ZNSt5tupleIJdcEEC2ILb1ETnNSt9enable_ifIXclsr4_TCCIXT_EEE29__is_implicitly_constructibleIRKdRKcEEEbE4typeELb1EEES4_S6_(ptr noundef nonnull align 8 dereferenceable(16) %this, ptr noundef nonnull align 8 dereferenceable(8) %__a1, ptr noundef nonnull align 1 dereferenceable(1) %__a2) unnamed_addr #2 comdat align 2 {
entry:
  %this.addr = alloca ptr, align 8
  %__a1.addr = alloca ptr, align 8
  %__a2.addr = alloca ptr, align 8
  store ptr %this, ptr %this.addr, align 8
  store ptr %__a1, ptr %__a1.addr, align 8
  store ptr %__a2, ptr %__a2.addr, align 8
  %this1 = load ptr, ptr %this.addr, align 8
  %0 = load ptr, ptr %__a1.addr, align 8
  %1 = load ptr, ptr %__a2.addr, align 8
  call void @_ZNSt11_Tuple_implILm0EJdcEEC2ERKdRKc(ptr noundef nonnull align 8 dereferenceable(16) %this1, ptr noundef nonnull align 8 dereferenceable(8) %0, ptr noundef nonnull align 1 dereferenceable(1) %1)
  ret void
}

; Function Attrs: mustprogress nounwind uwtable
define linkonce_odr hidden void @_ZN4llvh18format_object_baseC2EPKc(ptr noundef nonnull align 8 dereferenceable(16) %this, ptr noundef %fmt) unnamed_addr #2 comdat align 2 {
entry:
  %this.addr = alloca ptr, align 8
  %fmt.addr = alloca ptr, align 8
  store ptr %this, ptr %this.addr, align 8
  store ptr %fmt, ptr %fmt.addr, align 8
  %this1 = load ptr, ptr %this.addr, align 8
  store ptr getelementptr inbounds ({ [4 x ptr] }, ptr @_ZTVN4llvh18format_object_baseE, i32 0, i32 0, i32 2), ptr %this1, align 8
  %Fmt = getelementptr inbounds %"class.llvh::format_object_base", ptr %this1, i32 0, i32 1
  %0 = load ptr, ptr %fmt.addr, align 8
  store ptr %0, ptr %Fmt, align 8
  ret void
}

; Function Attrs: mustprogress nounwind uwtable
define linkonce_odr hidden void @_ZN4llvh13format_objectIJdcEEC2EPKcRKdRS2_(ptr noundef nonnull align 8 dereferenceable(32) %this, ptr noundef %fmt, ptr noundef nonnull align 8 dereferenceable(8) %vals, ptr noundef nonnull align 1 dereferenceable(1) %vals1) unnamed_addr #2 comdat align 2 {
entry:
  %this.addr = alloca ptr, align 8
  %fmt.addr = alloca ptr, align 8
  %vals.addr = alloca ptr, align 8
  %vals.addr2 = alloca ptr, align 8
  %agg.tmp.ensured = alloca %"struct.llvh::validate_format_parameters", align 1
  store ptr %this, ptr %this.addr, align 8
  store ptr %fmt, ptr %fmt.addr, align 8
  store ptr %vals, ptr %vals.addr, align 8
  store ptr %vals1, ptr %vals.addr2, align 8
  %this3 = load ptr, ptr %this.addr, align 8
  %0 = load ptr, ptr %fmt.addr, align 8
  call void @_ZN4llvh18format_object_baseC2EPKc(ptr noundef nonnull align 8 dereferenceable(16) %this3, ptr noundef %0)
  store ptr getelementptr inbounds ({ [4 x ptr] }, ptr @_ZTVN4llvh13format_objectIJdcEEE, i32 0, i32 0, i32 2), ptr %this3, align 8
  %Vals = getelementptr inbounds %"class.llvh::format_object", ptr %this3, i32 0, i32 1
  %1 = load ptr, ptr %vals.addr, align 8
  %2 = load ptr, ptr %vals.addr2, align 8
  call void @_ZNSt5tupleIJdcEEC2ILb1ETnNSt9enable_ifIXclsr4_TCCIXT_EEE29__is_implicitly_constructibleIRKdRKcEEEbE4typeELb1EEES4_S6_(ptr noundef nonnull align 8 dereferenceable(16) %Vals, ptr noundef nonnull align 8 dereferenceable(8) %1, ptr noundef nonnull align 1 dereferenceable(1) %2) #14
  call void @_ZN4llvh26validate_format_parametersIJdcEEC2Ev(ptr noundef nonnull align 1 dereferenceable(1) %agg.tmp.ensured)
  ret void
}

; Function Attrs: mustprogress nounwind uwtable
define linkonce_odr hidden void @_ZN4llvh6formatIJdcEEENS_13format_objectIJDpT_EEEPKcDpRKS2_(ptr noalias sret(%"class.llvh::format_object") align 8 %agg.result, ptr noundef %Fmt, ptr noundef nonnull align 8 dereferenceable(8) %Vals, ptr noundef nonnull align 1 dereferenceable(1) %Vals1) #2 comdat {
entry:
  %result.ptr = alloca ptr, align 8
  %Fmt.addr = alloca ptr, align 8
  %Vals.addr = alloca ptr, align 8
  %Vals.addr2 = alloca ptr, align 8
  store ptr %agg.result, ptr %result.ptr, align 8
  store ptr %Fmt, ptr %Fmt.addr, align 8
  store ptr %Vals, ptr %Vals.addr, align 8
  store ptr %Vals1, ptr %Vals.addr2, align 8
  %0 = load ptr, ptr %Fmt.addr, align 8
  %1 = load ptr, ptr %Vals.addr, align 8
  %2 = load ptr, ptr %Vals.addr2, align 8
  call void @_ZN4llvh13format_objectIJdcEEC2EPKcRKdRS2_(ptr noundef nonnull align 8 dereferenceable(32) %agg.result, ptr noundef %0, ptr noundef nonnull align 8 dereferenceable(8) %1, ptr noundef nonnull align 1 dereferenceable(1) %2)
  ret void
}

; Function Attrs: mustprogress nounwind uwtable
define linkonce_odr dso_local noundef double @_ZSt3powImmEN9__gnu_cxx9__promoteIDTplcvNS1_IT_Xsr3std12__is_integerIS2_EE7__valueEE6__typeELi0EcvNS1_IT0_Xsr3std12__is_integerIS5_EE7__valueEE6__typeELi0EEXsr3std12__is_integerIS8_EE7__valueEE6__typeES2_S5_(i64 noundef %__x, i64 noundef %__y) #2 comdat {
entry:
  %__x.addr = alloca i64, align 8
  %__y.addr = alloca i64, align 8
  store i64 %__x, ptr %__x.addr, align 8
  store i64 %__y, ptr %__y.addr, align 8
  %0 = load i64, ptr %__x.addr, align 8
  %conv = uitofp i64 %0 to double
  %1 = load i64, ptr %__y.addr, align 8
  %conv1 = uitofp i64 %1 to double
  %call = call double @pow(double noundef %conv, double noundef %conv1) #14
  ret double %call
}

; Function Attrs: mustprogress nounwind uwtable
define linkonce_odr dso_local noundef double @_ZSt3logImEN9__gnu_cxx11__enable_ifIXsr12__is_integerIT_EE7__valueEdE6__typeES2_(i64 noundef %__x) #2 comdat {
entry:
  %__x.addr = alloca i64, align 8
  store i64 %__x, ptr %__x.addr, align 8
  %0 = load i64, ptr %__x.addr, align 8
  %conv = uitofp i64 %0 to double
  %call = call double @log(double noundef %conv) #14
  ret double %call
}

; Function Attrs: mustprogress nounwind uwtable
define linkonce_odr dso_local noundef i64 @_ZSt3absl(i64 noundef %__i) #2 comdat {
entry:
  %__i.addr = alloca i64, align 8
  store i64 %__i, ptr %__i.addr, align 8
  %0 = load i64, ptr %__i.addr, align 8
  %1 = call i64 @llvm.abs.i64(i64 %0, i1 true)
  ret i64 %1
}

; Function Attrs: mustprogress nounwind uwtable
define linkonce_odr hidden noundef nonnull align 8 dereferenceable(36) ptr @_ZN4llvh11raw_ostreamlsEc(ptr noundef nonnull align 8 dereferenceable(36) %this, i8 noundef signext %C) #2 comdat align 2 {
entry:
  %retval = alloca ptr, align 8
  %this.addr = alloca ptr, align 8
  %C.addr = alloca i8, align 1
  store ptr %this, ptr %this.addr, align 8
  store i8 %C, ptr %C.addr, align 1
  %this1 = load ptr, ptr %this.addr, align 8
  %OutBufCur = getelementptr inbounds %"class.llvh::raw_ostream", ptr %this1, i32 0, i32 3
  %0 = load ptr, ptr %OutBufCur, align 8
  %OutBufEnd = getelementptr inbounds %"class.llvh::raw_ostream", ptr %this1, i32 0, i32 2
  %1 = load ptr, ptr %OutBufEnd, align 8
  %cmp = icmp uge ptr %0, %1
  br i1 %cmp, label %if.then, label %if.end

if.then:                                          ; preds = %entry
  %2 = load i8, ptr %C.addr, align 1
  %call = call noundef nonnull align 8 dereferenceable(36) ptr @_ZN4llvh11raw_ostream5writeEh(ptr noundef nonnull align 8 dereferenceable(36) %this1, i8 noundef zeroext %2)
  store ptr %call, ptr %retval, align 8
  br label %return

if.end:                                           ; preds = %entry
  %3 = load i8, ptr %C.addr, align 1
  %OutBufCur2 = getelementptr inbounds %"class.llvh::raw_ostream", ptr %this1, i32 0, i32 3
  %4 = load ptr, ptr %OutBufCur2, align 8
  %incdec.ptr = getelementptr inbounds i8, ptr %4, i32 1
  store ptr %incdec.ptr, ptr %OutBufCur2, align 8
  store i8 %3, ptr %4, align 1
  store ptr %this1, ptr %retval, align 8
  br label %return

return:                                           ; preds = %if.end, %if.then
  %5 = load ptr, ptr %retval, align 8
  ret ptr %5
}

; Function Attrs: mustprogress nounwind uwtable
define internal void @_ZL10printByteslRN4llvh11raw_ostreamEb(i64 noundef %size, ptr noundef nonnull align 8 dereferenceable(36) %os, i1 noundef zeroext %humanize) #2 {
entry:
  %size.addr = alloca i64, align 8
  %os.addr = alloca ptr, align 8
  %humanize.addr = alloca i8, align 1
  %base = alloca i64, align 8
  %absSize = alloca i64, align 8
  %exponent = alloca i64, align 8
  %prefix = alloca i8, align 1
  %ref.tmp = alloca %"class.llvh::format_object", align 8
  %ref.tmp13 = alloca double, align 8
  store i64 %size, ptr %size.addr, align 8
  store ptr %os, ptr %os.addr, align 8
  %frombool = zext i1 %humanize to i8
  store i8 %frombool, ptr %humanize.addr, align 1
  store i64 1024, ptr %base, align 8
  %0 = load i64, ptr %size.addr, align 8
  %cmp = icmp slt i64 %0, 0
  br i1 %cmp, label %if.then, label %if.end

if.then:                                          ; preds = %entry
  %1 = load ptr, ptr %os.addr, align 8
  %call = call noundef nonnull align 8 dereferenceable(36) ptr @_ZN4llvh11raw_ostreamlsEc(ptr noundef nonnull align 8 dereferenceable(36) %1, i8 noundef signext 45)
  br label %if.end

if.end:                                           ; preds = %if.then, %entry
  %2 = load i64, ptr %size.addr, align 8
  %call1 = call noundef i64 @_ZSt3absl(i64 noundef %2)
  store i64 %call1, ptr %absSize, align 8
  %3 = load i8, ptr %humanize.addr, align 1
  %tobool = trunc i8 %3 to i1
  br i1 %tobool, label %lor.lhs.false, label %if.then3

lor.lhs.false:                                    ; preds = %if.end
  %4 = load i64, ptr %absSize, align 8
  %cmp2 = icmp ult i64 %4, 1024
  br i1 %cmp2, label %if.then3, label %if.end6

if.then3:                                         ; preds = %lor.lhs.false, %if.end
  %5 = load ptr, ptr %os.addr, align 8
  %6 = load i64, ptr %absSize, align 8
  %call4 = call noundef nonnull align 8 dereferenceable(36) ptr @_ZN4llvh11raw_ostreamlsEm(ptr noundef nonnull align 8 dereferenceable(36) %5, i64 noundef %6)
  %call5 = call noundef nonnull align 8 dereferenceable(36) ptr @_ZN4llvh11raw_ostreamlsEPKc(ptr noundef nonnull align 8 dereferenceable(36) %call4, ptr noundef @.str.31)
  br label %return

if.end6:                                          ; preds = %lor.lhs.false
  %7 = load i64, ptr %absSize, align 8
  %call7 = call noundef double @_ZSt3logImEN9__gnu_cxx11__enable_ifIXsr12__is_integerIT_EE7__valueEdE6__typeES2_(i64 noundef %7)
  %call8 = call noundef double @_ZSt3logImEN9__gnu_cxx11__enable_ifIXsr12__is_integerIT_EE7__valueEdE6__typeES2_(i64 noundef 1024)
  %div = fdiv double %call7, %call8
  %conv = fptoui double %div to i64
  store i64 %conv, ptr %exponent, align 8
  %8 = load i64, ptr %exponent, align 8
  %cmp9 = icmp ugt i64 %8, 3
  br i1 %cmp9, label %if.then10, label %if.end12

if.then10:                                        ; preds = %if.end6
  %9 = load ptr, ptr %os.addr, align 8
  %call11 = call noundef nonnull align 8 dereferenceable(36) ptr @_ZN4llvh11raw_ostreamlsEPKc(ptr noundef nonnull align 8 dereferenceable(36) %9, ptr noundef @.str.32)
  call void @exit(i32 noundef 1) #19
  unreachable

if.end12:                                         ; preds = %if.end6
  %10 = load i64, ptr %exponent, align 8
  %sub = sub i64 %10, 1
  %arrayidx = getelementptr inbounds [4 x i8], ptr @.str.33, i64 0, i64 %sub
  %11 = load i8, ptr %arrayidx, align 1
  store i8 %11, ptr %prefix, align 1
  %12 = load ptr, ptr %os.addr, align 8
  %13 = load i64, ptr %absSize, align 8
  %conv14 = uitofp i64 %13 to double
  %14 = load i64, ptr %exponent, align 8
  %call15 = call noundef double @_ZSt3powImmEN9__gnu_cxx9__promoteIDTplcvNS1_IT_Xsr3std12__is_integerIS2_EE7__valueEE6__typeELi0EcvNS1_IT0_Xsr3std12__is_integerIS5_EE7__valueEE6__typeELi0EEXsr3std12__is_integerIS8_EE7__valueEE6__typeES2_S5_(i64 noundef 1024, i64 noundef %14)
  %div16 = fdiv double %conv14, %call15
  store double %div16, ptr %ref.tmp13, align 8
  call void @_ZN4llvh6formatIJdcEEENS_13format_objectIJDpT_EEEPKcDpRKS2_(ptr sret(%"class.llvh::format_object") align 8 %ref.tmp, ptr noundef @.str.34, ptr noundef nonnull align 8 dereferenceable(8) %ref.tmp13, ptr noundef nonnull align 1 dereferenceable(1) %prefix)
  %call17 = call noundef nonnull align 8 dereferenceable(36) ptr @_ZN4llvh11raw_ostreamlsERKNS_18format_object_baseE(ptr noundef nonnull align 8 dereferenceable(36) %12, ptr noundef nonnull align 8 dereferenceable(16) %ref.tmp)
  br label %return

return:                                           ; preds = %if.end12, %if.then3
  ret void
}