; Function Attrs: mustprogress norecurse nounwind uwtable
define internal fastcc void @_ZL10printByteslRN4llvh11raw_ostreamEb(i64 noundef %size, ptr noundef nonnull align 8 dereferenceable(36) %os, i1 noundef zeroext %humanize) unnamed_addr #0 {
entry:
  %ref.tmp = alloca %"class.llvh::format_object", align 8
  %cmp = icmp slt i64 %size, 0
  br i1 %cmp, label %if.then, label %if.end

if.then:                                          ; preds = %entry
  %OutBufCur.i = getelementptr inbounds i8, ptr %os, i64 24
  %0 = load ptr, ptr %OutBufCur.i, align 8
  %OutBufEnd.i = getelementptr inbounds i8, ptr %os, i64 16
  %1 = load ptr, ptr %OutBufEnd.i, align 8
  %cmp.not.i = icmp ult ptr %0, %1
  br i1 %cmp.not.i, label %if.end.i, label %if.then.i

if.then.i:                                        ; preds = %if.then
  %call.i = tail call noundef nonnull align 8 dereferenceable(36) ptr @_ZN4llvh11raw_ostream5writeEh(ptr noundef nonnull align 8 dereferenceable(36) %os, i8 noundef zeroext 45) #19
  br label %if.end

if.end.i:                                         ; preds = %if.then
  %incdec.ptr.i = getelementptr inbounds i8, ptr %0, i64 1
  store ptr %incdec.ptr.i, ptr %OutBufCur.i, align 8
  store i8 45, ptr %0, align 1
  br label %if.end

if.end:                                           ; preds = %if.end.i, %if.then.i, %entry
  %2 = tail call noundef i64 @llvm.abs.i64(i64 %size, i1 true)
  %cmp2 = icmp ugt i64 %2, 1023
  %or.cond.not = and i1 %cmp2, %humanize
  br i1 %or.cond.not, label %if.end6, label %if.then3

if.then3:                                         ; preds = %if.end
  %call4 = tail call noundef nonnull align 8 dereferenceable(36) ptr @_ZN4llvh11raw_ostreamlsEm(ptr noundef nonnull align 8 dereferenceable(36) %os, i64 noundef %2) #19
  %OutBufEnd.i5.i = getelementptr inbounds i8, ptr %call4, i64 16
  %3 = load ptr, ptr %OutBufEnd.i5.i, align 8
  %OutBufCur.i6.i = getelementptr inbounds i8, ptr %call4, i64 24
  %4 = load ptr, ptr %OutBufCur.i6.i, align 8
  %sub.ptr.lhs.cast.i7.i = ptrtoint ptr %3 to i64
  %sub.ptr.rhs.cast.i8.i = ptrtoint ptr %4 to i64
  %sub.ptr.sub.i9.i = sub i64 %sub.ptr.lhs.cast.i7.i, %sub.ptr.rhs.cast.i8.i
  %cmp.i.i = icmp ult i64 %sub.ptr.sub.i9.i, 2
  br i1 %cmp.i.i, label %if.then.i.i, label %if.then4.i.i

if.then.i.i:                                      ; preds = %if.then3
  %call3.i.i = tail call noundef nonnull align 8 dereferenceable(36) ptr @_ZN4llvh11raw_ostream5writeEPKcm(ptr noundef nonnull align 8 dereferenceable(36) %call4, ptr noundef nonnull @.str.31, i64 noundef 2) #19
  br label %return

if.then4.i.i:                                     ; preds = %if.then3
  store i16 16928, ptr %4, align 1
  %5 = load ptr, ptr %OutBufCur.i6.i, align 8
  %add.ptr.i.i = getelementptr inbounds i8, ptr %5, i64 2
  store ptr %add.ptr.i.i, ptr %OutBufCur.i6.i, align 8
  br label %return

if.end6:                                          ; preds = %if.end
  %conv.i = uitofp i64 %2 to double
  %call.i10 = tail call noundef double @log(double noundef %conv.i) #19
  %div = fdiv double %call.i10, 0x401BB9D3BEB8C86B
  %conv = fptoui double %div to i64
  %cmp9 = icmp ugt i64 %conv, 3
  br i1 %cmp9, label %if.then10, label %if.end12

if.then10:                                        ; preds = %if.end6
  %call11 = tail call noundef nonnull align 8 dereferenceable(36) ptr @_ZN4llvh11raw_ostreamlsEPKc(ptr noundef nonnull align 8 dereferenceable(36) %os, ptr noundef nonnull @.str.32)
  tail call void @exit(i32 noundef 1) #21
  unreachable

if.end12:                                         ; preds = %if.end6
  %sub = add nsw i64 %conv, -1
  %arrayidx = getelementptr inbounds [4 x i8], ptr @.str.33, i64 0, i64 %sub
  %6 = load i8, ptr %arrayidx, align 1
  %conv1.i = uitofp i64 %conv to double
  %mul = fmul double %conv1.i, 1.000000e+01
  %exp2 = tail call double @exp2(double %mul) #19
  %div16 = fdiv double %conv.i, %exp2
  %Fmt.i.i.i = getelementptr inbounds i8, ptr %ref.tmp, i64 8
  store ptr @.str.34, ptr %Fmt.i.i.i, align 8, !alias.scope !38
  store ptr getelementptr inbounds ({ [4 x ptr] }, ptr @_ZTVN4llvh13format_objectIJdcEEE, i64 0, i32 0, i64 2), ptr %ref.tmp, align 8, !alias.scope !38
  %Vals.i.i = getelementptr inbounds i8, ptr %ref.tmp, i64 16
  store i8 %6, ptr %Vals.i.i, align 8, !alias.scope !38
  %7 = getelementptr inbounds i8, ptr %ref.tmp, i64 24
  store double %div16, ptr %7, align 8, !alias.scope !38
  %call17 = call noundef nonnull align 8 dereferenceable(36) ptr @_ZN4llvh11raw_ostreamlsERKNS_18format_object_baseE(ptr noundef nonnull align 8 dereferenceable(36) %os, ptr noundef nonnull align 8 dereferenceable(16) %ref.tmp) #19
  br label %return

return:                                           ; preds = %if.then4.i.i, %if.then.i.i, %if.end12
  ret void
}